target datalayout = "e-m:e-p270:32:32-p271:32:32-p272:64:64-i64:64-i128:128-f80:128-n8:16:32:64-S128"
target triple = "x86_64-pc-linux-gnu"

%struct.decoder_data_st = type { ptr, i32, ptr, ptr, ptr, i8 }

; Function Attrs: nounwind uwtable
define internal void @dealloc_tmp_decoder_store(ptr noundef %0) #0 {
  %2 = alloca ptr, align 8
  store ptr %0, ptr %2, align 8, !tbaa !10
  %3 = load ptr, ptr %2, align 8, !tbaa !10
  %4 = icmp ne ptr %3, null
  br i1 %4, label %5, label %7

5:                                                ; preds = %1
  %6 = load ptr, ptr %2, align 8, !tbaa !10
  call void @ossl_method_store_free(ptr noundef %6)
  br label %7

7:                                                ; preds = %5, %1
  ret void
}

; Function Attrs: nounwind uwtable
define ptr @OSSL_DECODER_fetch(ptr noundef %0, ptr noundef %1, ptr noundef %2) #0 {
  %4 = alloca ptr, align 8
  %5 = alloca ptr, align 8
  %6 = alloca ptr, align 8
  %7 = alloca %struct.decoder_data_st, align 8
  %8 = alloca ptr, align 8
  store ptr %0, ptr %4, align 8, !tbaa !29
  store ptr %1, ptr %5, align 8, !tbaa !48
  store ptr %2, ptr %6, align 8, !tbaa !48
  call void @llvm.lifetime.start.p0(i64 48, ptr %7) #7
  call void @llvm.lifetime.start.p0(i64 8, ptr %8) #7
  %9 = load ptr, ptr %4, align 8, !tbaa !29
  %10 = getelementptr inbounds nuw %struct.decoder_data_st, ptr %7, i32 0, i32 0
  store ptr %9, ptr %10, align 8, !tbaa !49
  %11 = getelementptr inbounds nuw %struct.decoder_data_st, ptr %7, i32 0, i32 4
  store ptr null, ptr %11, align 8, !tbaa !52
  %12 = load ptr, ptr %5, align 8, !tbaa !48
  %13 = load ptr, ptr %6, align 8, !tbaa !48
  %14 = call ptr @inner_ossl_decoder_fetch(ptr noundef %7, ptr noundef %12, ptr noundef %13)
  store ptr %14, ptr %8, align 8, !tbaa !10
  %15 = getelementptr inbounds nuw %struct.decoder_data_st, ptr %7, i32 0, i32 4
  %16 = load ptr, ptr %15, align 8, !tbaa !52
  call void @dealloc_tmp_decoder_store(ptr noundef %16)
  %17 = load ptr, ptr %8, align 8, !tbaa !10
  call void @llvm.lifetime.end.p0(i64 8, ptr %8) #7
  call void @llvm.lifetime.end.p0(i64 48, ptr %7) #7
  ret ptr %17
}