; Function Attrs: nounwind uwtable
define ptr @OSSL_DECODER_fetch(ptr noundef %0, ptr noundef %1, ptr noundef %2) local_unnamed_addr #2 {
  %4 = alloca %struct.decoder_data_st, align 8
  call void @llvm.lifetime.start.p0(i64 48, ptr nonnull %4) #8
  store ptr %0, ptr %4, align 8, !tbaa !38
  %5 = getelementptr inbounds nuw i8, ptr %4, i64 32
  store ptr null, ptr %5, align 8, !tbaa !42
  %6 = call fastcc ptr @inner_ossl_decoder_fetch(ptr noundef %4, ptr noundef %1, ptr noundef %2)
  %7 = load ptr, ptr %5, align 8, !tbaa !42
  %.not.i = icmp eq ptr %7, null
  br i1 %.not.i, label %dealloc_tmp_decoder_store.exit, label %8

8:                                                ; preds = %3
  call void @ossl_method_store_free(ptr noundef nonnull %7) #8
  br label %dealloc_tmp_decoder_store.exit

dealloc_tmp_decoder_store.exit:                   ; preds = %3, %8
  call void @llvm.lifetime.end.p0(i64 48, ptr nonnull %4) #8
  ret ptr %6
}